target datalayout = "e-m:e-p270:32:32-p271:32:32-p272:64:64-i64:64-i128:128-f80:128-n8:16:32:64-S128"
target triple = "x86_64-pc-linux-gnu"

%struct.lua_State = type { %struct.GCRef, i8, i8, i8, i8, %struct.MRef, %struct.GCRef, ptr, ptr, %struct.MRef, %struct.MRef, %struct.GCRef, %struct.GCRef, ptr, i32 }
%struct.MRef = type { i64 }
%struct.GCRef = type { i64 }
%union.TValue = type { i64 }

; Function Attrs: alwaysinline nounwind uwtable
define internal void @setintV(ptr noundef %0, i32 noundef %1) #3 {
  %3 = alloca ptr, align 8
  %4 = alloca i32, align 4
  store ptr %0, ptr %3, align 8, !tbaa !19
  store i32 %1, ptr %4, align 4, !tbaa !9
  %5 = load i32, ptr %4, align 4, !tbaa !9
  %6 = sitofp i32 %5 to double
  %7 = load ptr, ptr %3, align 8, !tbaa !19
  store double %6, ptr %7, align 8, !tbaa !18
  ret void
}

; Function Attrs: nounwind uwtable
define internal i32 @lj_ffh_bit_tobit(ptr noundef %0) #0 {
  %2 = alloca ptr, align 8
  %3 = alloca i32, align 4
  store ptr %0, ptr %2, align 8, !tbaa !4
  call void @llvm.lifetime.start.p0(i64 4, ptr %3) #6
  store i32 0, ptr %3, align 4, !tbaa !9
  %4 = load ptr, ptr %2, align 8, !tbaa !4
  %5 = getelementptr inbounds nuw %struct.lua_State, ptr %4, i32 0, i32 7
  %6 = load ptr, ptr %5, align 8, !tbaa !11
  %7 = getelementptr inbounds %union.TValue, ptr %6, i64 -1
  %8 = getelementptr inbounds %union.TValue, ptr %7, i64 -1
  %9 = load ptr, ptr %2, align 8, !tbaa !4
  %10 = call i64 @lj_carith_check64(ptr noundef %9, i32 noundef 1, ptr noundef %3)
  %11 = trunc i64 %10 to i32
  call void @setintV(ptr noundef %8, i32 noundef %11)
  call void @llvm.lifetime.end.p0(i64 4, ptr %3) #6
  ret i32 2
}