; Function Attrs: nounwind uwtable
define internal noundef i32 @lj_ffh_bit_tobit(ptr noundef %0) #0 {
  %2 = alloca i32, align 4
  call void @llvm.lifetime.start.p0(i64 4, ptr nonnull %2) #5
  store i32 0, ptr %2, align 4, !tbaa !4
  %3 = getelementptr inbounds nuw i8, ptr %0, i64 32
  %4 = load ptr, ptr %3, align 8, !tbaa !8
  %5 = getelementptr inbounds i8, ptr %4, i64 -16
  %6 = call i64 @lj_carith_check64(ptr noundef %0, i32 noundef 1, ptr noundef nonnull %2) #5
  %7 = trunc i64 %6 to i32
  %8 = sitofp i32 %7 to double
  store double %8, ptr %5, align 8, !tbaa !15
  call void @llvm.lifetime.end.p0(i64 4, ptr nonnull %2) #5
  ret i32 2
}